; Function Attrs: nounwind uwtable
define void @Wln_WriteAddPos(ptr noundef %0) local_unnamed_addr #3 {
  %2 = getelementptr i8, ptr %0, i64 76
  %.val7 = load i32, ptr %2, align 4, !tbaa !23
  %3 = icmp sgt i32 %.val7, 1
  br i1 %3, label %.lr.ph, label %._crit_edge

.lr.ph:                                           ; preds = %1
  %4 = getelementptr i8, ptr %0, i64 80
  br label %5

5:                                                ; preds = %.lr.ph, %12
  %.val10 = phi i32 [ %.val7, %.lr.ph ], [ %.val, %12 ]
  %indvars.iv = phi i64 [ 1, %.lr.ph ], [ %indvars.iv.next, %12 ]
  %.val6 = load ptr, ptr %4, align 8, !tbaa !24
  %6 = getelementptr inbounds nuw i32, ptr %.val6, i64 %indvars.iv
  %7 = load i32, ptr %6, align 4, !tbaa !25
  %8 = add i32 %7, -5
  %narrow.i = icmp ult i32 %8, -2
  br i1 %narrow.i, label %9, label %12

9:                                                ; preds = %5
  %10 = trunc nuw nsw i64 %indvars.iv to i32
  %11 = tail call i32 @Wln_ObjCreateCo(ptr noundef nonnull %0, i32 noundef %10) #12
  %.val.pre = load i32, ptr %2, align 4, !tbaa !23
  br label %12

12:                                               ; preds = %5, %9
  %.val = phi i32 [ %.val10, %5 ], [ %.val.pre, %9 ]
  %indvars.iv.next = add nuw nsw i64 %indvars.iv, 1
  %13 = sext i32 %.val to i64
  %14 = icmp slt i64 %indvars.iv.next, %13
  br i1 %14, label %5, label %._crit_edge, !llvm.loop !41

._crit_edge:                                      ; preds = %12, %1
  ret void
}